target datalayout = "e-m:e-p270:32:32-p271:32:32-p272:64:64-i64:64-i128:128-f80:128-n8:16:32:64-S128"
target triple = "x86_64-pc-linux-gnu"

%struct.ansi_a_shared_data_t = type { ptr, ptr, ptr, i8, i8, %struct._address, i32, %struct.e_in6_addr, i16, i8 }
%struct._address = type { i32, i32, ptr, ptr }
%struct.e_in6_addr = type { [16 x i8] }

@.str.275 = private unnamed_addr constant [9 x i8] c"Reserved\00", align 1
@hf_ansi_a_reserved_bits_8_c0 = internal global i32 0, align 4
@hf_ansi_a_reserved_bits_8_e0 = internal global i32 0, align 4
@hf_ansi_a_reserved_bits_8_f0 = internal global i32 0, align 4
@hf_ansi_a_hho_params_band_class = internal global i32 0, align 4
@hf_ansi_a_hho_params_num_pream_frames = internal global i32 0, align 4
@hf_ansi_a_hho_params_reset_l2 = internal global i32 0, align 4
@hf_ansi_a_hho_params_reset_fpc = internal global i32 0, align 4
@hf_ansi_a_hho_params_enc_mode = internal global i32 0, align 4
@hf_ansi_a_hho_params_private_lcm = internal global i32 0, align 4
@hf_ansi_a_hho_params_rev_pwr_cntl_delay_incl = internal global i32 0, align 4
@hf_ansi_a_hho_params_rev_pwr_cntl_delay = internal global i32 0, align 4
@hf_ansi_a_hho_params_nom_pwr_ext = internal global i32 0, align 4
@hf_ansi_a_hho_params_nom_pwr = internal global i32 0, align 4
@hf_ansi_a_hho_params_fpc_subchan_info = internal global i32 0, align 4
@hf_ansi_a_hho_params_fpc_subchan_info_incl = internal global i32 0, align 4
@hf_ansi_a_hho_params_pwr_cntl_step = internal global i32 0, align 4
@hf_ansi_a_hho_params_pwr_cntl_step_incl = internal global i32 0, align 4
@global_a_variant = internal global i32 9, align 4
@.str.1006 = private unnamed_addr constant [8 x i8] c" - (%s)\00", align 1

; Function Attrs: null_pointer_is_valid sspstrong uwtable
define internal zeroext i8 @elem_hho_params(ptr noundef %0, ptr noundef %1, ptr noundef %2, i32 noundef %3, i32 noundef %4, ptr noundef %5) #1 {
  %7 = alloca ptr, align 8
  %8 = alloca ptr, align 8
  %9 = alloca ptr, align 8
  %10 = alloca i32, align 4
  %11 = alloca i32, align 4
  %12 = alloca ptr, align 8
  %13 = alloca i8, align 1
  %14 = alloca i32, align 4
  %15 = alloca ptr, align 8
  store ptr %0, ptr %7, align 8
  store ptr %1, ptr %8, align 8
  store ptr %2, ptr %9, align 8
  store i32 %3, ptr %10, align 4
  store i32 %4, ptr %11, align 4
  store ptr %5, ptr %12, align 8
  call void @llvm.lifetime.start.p0(i64 1, ptr %13) #8
  call void @llvm.lifetime.start.p0(i64 4, ptr %14) #8
  call void @llvm.lifetime.start.p0(i64 8, ptr %15) #8
  %16 = load i32, ptr %10, align 4
  store i32 %16, ptr %14, align 4
  %17 = load ptr, ptr %9, align 8
  %18 = load i32, ptr @hf_ansi_a_reserved_bits_8_e0, align 4
  %19 = load ptr, ptr %7, align 8
  %20 = load i32, ptr %14, align 4
  %21 = call ptr @proto_tree_add_item(ptr noundef %17, i32 noundef %18, ptr noundef %19, i32 noundef %20, i32 noundef 1, i32 noundef 0)
  %22 = load ptr, ptr %9, align 8
  %23 = load i32, ptr @hf_ansi_a_hho_params_band_class, align 4
  %24 = load ptr, ptr %7, align 8
  %25 = load i32, ptr %14, align 4
  %26 = call ptr @proto_tree_add_item(ptr noundef %22, i32 noundef %23, ptr noundef %24, i32 noundef %25, i32 noundef 1, i32 noundef 0)
  %27 = load ptr, ptr %7, align 8
  %28 = load i32, ptr %14, align 4
  %29 = call zeroext i8 @tvb_get_uint8(ptr noundef %27, i32 noundef %28)
  store i8 %29, ptr %13, align 1
  %30 = load i8, ptr %13, align 1
  %31 = zext i8 %30 to i32
  %32 = and i32 %31, 31
  %33 = call ptr @val_to_str_const(i32 noundef %32, ptr noundef @ansi_a_band_class_vals, ptr noundef @.str.275)
  store ptr %33, ptr %15, align 8
  %34 = load ptr, ptr %12, align 8
  %35 = getelementptr inbounds nuw %struct.ansi_a_shared_data_t, ptr %34, i32 0, i32 2
  %36 = load ptr, ptr %35, align 8
  %37 = load ptr, ptr %15, align 8
  call void (ptr, ptr, ...) @proto_item_append_text(ptr noundef %36, ptr noundef @.str.1006, ptr noundef %37)
  %38 = load i32, ptr %14, align 4
  %39 = add i32 %38, 1
  store i32 %39, ptr %14, align 4
  %40 = load ptr, ptr %9, align 8
  %41 = load i32, ptr @hf_ansi_a_hho_params_num_pream_frames, align 4
  %42 = load ptr, ptr %7, align 8
  %43 = load i32, ptr %14, align 4
  %44 = call ptr @proto_tree_add_item(ptr noundef %40, i32 noundef %41, ptr noundef %42, i32 noundef %43, i32 noundef 1, i32 noundef 0)
  %45 = load ptr, ptr %9, align 8
  %46 = load i32, ptr @hf_ansi_a_hho_params_reset_l2, align 4
  %47 = load ptr, ptr %7, align 8
  %48 = load i32, ptr %14, align 4
  %49 = call ptr @proto_tree_add_item(ptr noundef %45, i32 noundef %46, ptr noundef %47, i32 noundef %48, i32 noundef 1, i32 noundef 0)
  %50 = load ptr, ptr %9, align 8
  %51 = load i32, ptr @hf_ansi_a_hho_params_reset_fpc, align 4
  %52 = load ptr, ptr %7, align 8
  %53 = load i32, ptr %14, align 4
  %54 = call ptr @proto_tree_add_item(ptr noundef %50, i32 noundef %51, ptr noundef %52, i32 noundef %53, i32 noundef 1, i32 noundef 0)
  %55 = load ptr, ptr %9, align 8
  %56 = load i32, ptr @hf_ansi_a_hho_params_enc_mode, align 4
  %57 = load ptr, ptr %7, align 8
  %58 = load i32, ptr %14, align 4
  %59 = call ptr @proto_tree_add_item(ptr noundef %55, i32 noundef %56, ptr noundef %57, i32 noundef %58, i32 noundef 1, i32 noundef 0)
  %60 = load ptr, ptr %9, align 8
  %61 = load i32, ptr @hf_ansi_a_hho_params_private_lcm, align 4
  %62 = load ptr, ptr %7, align 8
  %63 = load i32, ptr %14, align 4
  %64 = call ptr @proto_tree_add_item(ptr noundef %60, i32 noundef %61, ptr noundef %62, i32 noundef %63, i32 noundef 1, i32 noundef 0)
  %65 = load i32, ptr %14, align 4
  %66 = add i32 %65, 1
  store i32 %66, ptr %14, align 4
  %67 = load i32, ptr @global_a_variant, align 4
  switch i32 %67, label %85 [
    i32 9, label %68
    i32 10, label %74
  ]

68:                                               ; preds = %6
  %69 = load ptr, ptr %9, align 8
  %70 = load i32, ptr @hf_ansi_a_reserved_bits_8_e0, align 4
  %71 = load ptr, ptr %7, align 8
  %72 = load i32, ptr %14, align 4
  %73 = call ptr @proto_tree_add_item(ptr noundef %69, i32 noundef %70, ptr noundef %71, i32 noundef %72, i32 noundef 1, i32 noundef 0)
  br label %85

74:                                               ; preds = %6
  %75 = load ptr, ptr %9, align 8
  %76 = load i32, ptr @hf_ansi_a_hho_params_rev_pwr_cntl_delay_incl, align 4
  %77 = load ptr, ptr %7, align 8
  %78 = load i32, ptr %14, align 4
  %79 = call ptr @proto_tree_add_item(ptr noundef %75, i32 noundef %76, ptr noundef %77, i32 noundef %78, i32 noundef 1, i32 noundef 0)
  %80 = load ptr, ptr %9, align 8
  %81 = load i32, ptr @hf_ansi_a_hho_params_rev_pwr_cntl_delay, align 4
  %82 = load ptr, ptr %7, align 8
  %83 = load i32, ptr %14, align 4
  %84 = call ptr @proto_tree_add_item(ptr noundef %80, i32 noundef %81, ptr noundef %82, i32 noundef %83, i32 noundef 1, i32 noundef 0)
  br label %85

85:                                               ; preds = %6, %74, %68
  %86 = load ptr, ptr %9, align 8
  %87 = load i32, ptr @hf_ansi_a_hho_params_nom_pwr_ext, align 4
  %88 = load ptr, ptr %7, align 8
  %89 = load i32, ptr %14, align 4
  %90 = call ptr @proto_tree_add_item(ptr noundef %86, i32 noundef %87, ptr noundef %88, i32 noundef %89, i32 noundef 1, i32 noundef 0)
  %91 = load ptr, ptr %9, align 8
  %92 = load i32, ptr @hf_ansi_a_hho_params_nom_pwr, align 4
  %93 = load ptr, ptr %7, align 8
  %94 = load i32, ptr %14, align 4
  %95 = call ptr @proto_tree_add_item(ptr noundef %91, i32 noundef %92, ptr noundef %93, i32 noundef %94, i32 noundef 1, i32 noundef 0)
  %96 = load i32, ptr %14, align 4
  %97 = add i32 %96, 1
  store i32 %97, ptr %14, align 4
  %98 = load ptr, ptr %9, align 8
  %99 = load i32, ptr @hf_ansi_a_reserved_bits_8_c0, align 4
  %100 = load ptr, ptr %7, align 8
  %101 = load i32, ptr %14, align 4
  %102 = call ptr @proto_tree_add_item(ptr noundef %98, i32 noundef %99, ptr noundef %100, i32 noundef %101, i32 noundef 1, i32 noundef 0)
  %103 = load ptr, ptr %9, align 8
  %104 = load i32, ptr @hf_ansi_a_hho_params_fpc_subchan_info, align 4
  %105 = load ptr, ptr %7, align 8
  %106 = load i32, ptr %14, align 4
  %107 = call ptr @proto_tree_add_item(ptr noundef %103, i32 noundef %104, ptr noundef %105, i32 noundef %106, i32 noundef 1, i32 noundef 0)
  %108 = load ptr, ptr %9, align 8
  %109 = load i32, ptr @hf_ansi_a_hho_params_fpc_subchan_info_incl, align 4
  %110 = load ptr, ptr %7, align 8
  %111 = load i32, ptr %14, align 4
  %112 = call ptr @proto_tree_add_item(ptr noundef %108, i32 noundef %109, ptr noundef %110, i32 noundef %111, i32 noundef 1, i32 noundef 0)
  %113 = load i32, ptr %14, align 4
  %114 = add i32 %113, 1
  store i32 %114, ptr %14, align 4
  %115 = load ptr, ptr %9, align 8
  %116 = load i32, ptr @hf_ansi_a_reserved_bits_8_f0, align 4
  %117 = load ptr, ptr %7, align 8
  %118 = load i32, ptr %14, align 4
  %119 = call ptr @proto_tree_add_item(ptr noundef %115, i32 noundef %116, ptr noundef %117, i32 noundef %118, i32 noundef 1, i32 noundef 0)
  %120 = load ptr, ptr %9, align 8
  %121 = load i32, ptr @hf_ansi_a_hho_params_pwr_cntl_step, align 4
  %122 = load ptr, ptr %7, align 8
  %123 = load i32, ptr %14, align 4
  %124 = call ptr @proto_tree_add_item(ptr noundef %120, i32 noundef %121, ptr noundef %122, i32 noundef %123, i32 noundef 1, i32 noundef 0)
  %125 = load ptr, ptr %9, align 8
  %126 = load i32, ptr @hf_ansi_a_hho_params_pwr_cntl_step_incl, align 4
  %127 = load ptr, ptr %7, align 8
  %128 = load i32, ptr %14, align 4
  %129 = call ptr @proto_tree_add_item(ptr noundef %125, i32 noundef %126, ptr noundef %127, i32 noundef %128, i32 noundef 1, i32 noundef 0)
  %130 = load i32, ptr %14, align 4
  %131 = add i32 %130, 1
  store i32 %131, ptr %14, align 4
  %132 = load i32, ptr %14, align 4
  %133 = load i32, ptr %10, align 4
  %134 = sub i32 %132, %133
  %135 = trunc i32 %134 to i8
  call void @llvm.lifetime.end.p0(i64 8, ptr %15) #8
  call void @llvm.lifetime.end.p0(i64 4, ptr %14) #8
  call void @llvm.lifetime.end.p0(i64 1, ptr %13) #8
  ret i8 %135
}