; Function Attrs: null_pointer_is_valid sspstrong uwtable
define internal noundef zeroext i8 @elem_hho_params(ptr noundef %0, ptr readnone captures(none) %1, ptr noundef %2, i32 noundef %3, i32 %4, ptr noundef readonly captures(none) %5) #1 {
  %7 = load i32, ptr @hf_ansi_a_reserved_bits_8_e0, align 4
  %8 = tail call ptr @proto_tree_add_item(ptr noundef %2, i32 noundef %7, ptr noundef %0, i32 noundef %3, i32 noundef 1, i32 noundef 0)
  %9 = load i32, ptr @hf_ansi_a_hho_params_band_class, align 4
  %10 = tail call ptr @proto_tree_add_item(ptr noundef %2, i32 noundef %9, ptr noundef %0, i32 noundef %3, i32 noundef 1, i32 noundef 0)
  %11 = tail call zeroext i8 @tvb_get_uint8(ptr noundef %0, i32 noundef %3)
  %12 = and i8 %11, 31
  %13 = zext nneg i8 %12 to i32
  %14 = tail call ptr @val_to_str_const(i32 noundef %13, ptr noundef nonnull @ansi_a_band_class_vals, ptr noundef nonnull @.str.275)
  %15 = getelementptr inbounds nuw i8, ptr %5, i64 16
  %16 = load ptr, ptr %15, align 8
  tail call void (ptr, ptr, ...) @proto_item_append_text(ptr noundef %16, ptr noundef nonnull @.str.1006, ptr noundef %14)
  %17 = add i32 %3, 1
  %18 = load i32, ptr @hf_ansi_a_hho_params_num_pream_frames, align 4
  %19 = tail call ptr @proto_tree_add_item(ptr noundef %2, i32 noundef %18, ptr noundef %0, i32 noundef %17, i32 noundef 1, i32 noundef 0)
  %20 = load i32, ptr @hf_ansi_a_hho_params_reset_l2, align 4
  %21 = tail call ptr @proto_tree_add_item(ptr noundef %2, i32 noundef %20, ptr noundef %0, i32 noundef %17, i32 noundef 1, i32 noundef 0)
  %22 = load i32, ptr @hf_ansi_a_hho_params_reset_fpc, align 4
  %23 = tail call ptr @proto_tree_add_item(ptr noundef %2, i32 noundef %22, ptr noundef %0, i32 noundef %17, i32 noundef 1, i32 noundef 0)
  %24 = load i32, ptr @hf_ansi_a_hho_params_enc_mode, align 4
  %25 = tail call ptr @proto_tree_add_item(ptr noundef %2, i32 noundef %24, ptr noundef %0, i32 noundef %17, i32 noundef 1, i32 noundef 0)
  %26 = load i32, ptr @hf_ansi_a_hho_params_private_lcm, align 4
  %27 = tail call ptr @proto_tree_add_item(ptr noundef %2, i32 noundef %26, ptr noundef %0, i32 noundef %17, i32 noundef 1, i32 noundef 0)
  %28 = add i32 %3, 2
  %29 = load i32, ptr @global_a_variant, align 4
  switch i32 %29, label %35 [
    i32 9, label %.sink.split
    i32 10, label %30
  ]

30:                                               ; preds = %6
  %31 = load i32, ptr @hf_ansi_a_hho_params_rev_pwr_cntl_delay_incl, align 4
  %32 = tail call ptr @proto_tree_add_item(ptr noundef %2, i32 noundef %31, ptr noundef %0, i32 noundef %28, i32 noundef 1, i32 noundef 0)
  br label %.sink.split

.sink.split:                                      ; preds = %6, %30
  %hf_ansi_a_hho_params_rev_pwr_cntl_delay.sink = phi ptr [ @hf_ansi_a_hho_params_rev_pwr_cntl_delay, %30 ], [ @hf_ansi_a_reserved_bits_8_e0, %6 ]
  %33 = load i32, ptr %hf_ansi_a_hho_params_rev_pwr_cntl_delay.sink, align 4
  %34 = tail call ptr @proto_tree_add_item(ptr noundef %2, i32 noundef %33, ptr noundef %0, i32 noundef %28, i32 noundef 1, i32 noundef 0)
  br label %35

35:                                               ; preds = %.sink.split, %6
  %36 = load i32, ptr @hf_ansi_a_hho_params_nom_pwr_ext, align 4
  %37 = tail call ptr @proto_tree_add_item(ptr noundef %2, i32 noundef %36, ptr noundef %0, i32 noundef %28, i32 noundef 1, i32 noundef 0)
  %38 = load i32, ptr @hf_ansi_a_hho_params_nom_pwr, align 4
  %39 = tail call ptr @proto_tree_add_item(ptr noundef %2, i32 noundef %38, ptr noundef %0, i32 noundef %28, i32 noundef 1, i32 noundef 0)
  %40 = add i32 %3, 3
  %41 = load i32, ptr @hf_ansi_a_reserved_bits_8_c0, align 4
  %42 = tail call ptr @proto_tree_add_item(ptr noundef %2, i32 noundef %41, ptr noundef %0, i32 noundef %40, i32 noundef 1, i32 noundef 0)
  %43 = load i32, ptr @hf_ansi_a_hho_params_fpc_subchan_info, align 4
  %44 = tail call ptr @proto_tree_add_item(ptr noundef %2, i32 noundef %43, ptr noundef %0, i32 noundef %40, i32 noundef 1, i32 noundef 0)
  %45 = load i32, ptr @hf_ansi_a_hho_params_fpc_subchan_info_incl, align 4
  %46 = tail call ptr @proto_tree_add_item(ptr noundef %2, i32 noundef %45, ptr noundef %0, i32 noundef %40, i32 noundef 1, i32 noundef 0)
  %47 = add i32 %3, 4
  %48 = load i32, ptr @hf_ansi_a_reserved_bits_8_f0, align 4
  %49 = tail call ptr @proto_tree_add_item(ptr noundef %2, i32 noundef %48, ptr noundef %0, i32 noundef %47, i32 noundef 1, i32 noundef 0)
  %50 = load i32, ptr @hf_ansi_a_hho_params_pwr_cntl_step, align 4
  %51 = tail call ptr @proto_tree_add_item(ptr noundef %2, i32 noundef %50, ptr noundef %0, i32 noundef %47, i32 noundef 1, i32 noundef 0)
  %52 = load i32, ptr @hf_ansi_a_hho_params_pwr_cntl_step_incl, align 4
  %53 = tail call ptr @proto_tree_add_item(ptr noundef %2, i32 noundef %52, ptr noundef %0, i32 noundef %47, i32 noundef 1, i32 noundef 0)
  ret i8 5
}